target datalayout = "e-m:e-p270:32:32-p271:32:32-p272:64:64-i64:64-i128:128-f80:128-n8:16:32:64-S128"
target triple = "x86_64-pc-linux-gnu"

; Function Attrs: nounwind uwtable
define internal i32 @ERR_isError(i64 noundef %0) #0 {
  %2 = alloca i64, align 8
  store i64 %0, ptr %2, align 8, !tbaa !3
  %3 = load i64, ptr %2, align 8, !tbaa !3
  %4 = icmp ugt i64 %3, -120
  %5 = zext i1 %4 to i32
  ret i32 %5
}

; Function Attrs: nounwind uwtable
define i32 @HUFv07_isError(i64 noundef %0) #0 {
  %2 = alloca i64, align 8
  store i64 %0, ptr %2, align 8, !tbaa !3
  %3 = load i64, ptr %2, align 8, !tbaa !3
  %4 = call i32 @ERR_isError(i64 noundef %3)
  ret i32 %4
}

; Function Attrs: nounwind uwtable
define i64 @HUFv07_decompress1X4_DCtx(ptr noundef %0, ptr noundef %1, i64 noundef %2, ptr noundef %3, i64 noundef %4) #0 {
  %6 = alloca i64, align 8
  %7 = alloca ptr, align 8
  %8 = alloca ptr, align 8
  %9 = alloca i64, align 8
  %10 = alloca ptr, align 8
  %11 = alloca i64, align 8
  %12 = alloca ptr, align 8
  %13 = alloca i64, align 8
  %14 = alloca i32, align 4
  store ptr %0, ptr %7, align 8, !tbaa !10
  store ptr %1, ptr %8, align 8, !tbaa !12
  store i64 %2, ptr %9, align 8, !tbaa !3
  store ptr %3, ptr %10, align 8, !tbaa !12
  store i64 %4, ptr %11, align 8, !tbaa !3
  call void @llvm.lifetime.start.p0(i64 8, ptr %12) #11
  %15 = load ptr, ptr %10, align 8, !tbaa !12
  store ptr %15, ptr %12, align 8, !tbaa !13
  call void @llvm.lifetime.start.p0(i64 8, ptr %13) #11
  %16 = load ptr, ptr %7, align 8, !tbaa !10
  %17 = load ptr, ptr %10, align 8, !tbaa !12
  %18 = load i64, ptr %11, align 8, !tbaa !3
  %19 = call i64 @HUFv07_readDTableX4(ptr noundef %16, ptr noundef %17, i64 noundef %18)
  store i64 %19, ptr %13, align 8, !tbaa !3
  %20 = load i64, ptr %13, align 8, !tbaa !3
  %21 = call i32 @HUFv07_isError(i64 noundef %20)
  %22 = icmp ne i32 %21, 0
  br i1 %22, label %23, label %25

23:                                               ; preds = %5
  %24 = load i64, ptr %13, align 8, !tbaa !3
  store i64 %24, ptr %6, align 8
  store i32 1, ptr %14, align 4
  br label %43

25:                                               ; preds = %5
  %26 = load i64, ptr %13, align 8, !tbaa !3
  %27 = load i64, ptr %11, align 8, !tbaa !3
  %28 = icmp uge i64 %26, %27
  br i1 %28, label %29, label %30

29:                                               ; preds = %25
  store i64 -72, ptr %6, align 8
  store i32 1, ptr %14, align 4
  br label %43

30:                                               ; preds = %25
  %31 = load i64, ptr %13, align 8, !tbaa !3
  %32 = load ptr, ptr %12, align 8, !tbaa !13
  %33 = getelementptr inbounds nuw i8, ptr %32, i64 %31
  store ptr %33, ptr %12, align 8, !tbaa !13
  %34 = load i64, ptr %13, align 8, !tbaa !3
  %35 = load i64, ptr %11, align 8, !tbaa !3
  %36 = sub i64 %35, %34
  store i64 %36, ptr %11, align 8, !tbaa !3
  %37 = load ptr, ptr %8, align 8, !tbaa !12
  %38 = load i64, ptr %9, align 8, !tbaa !3
  %39 = load ptr, ptr %12, align 8, !tbaa !13
  %40 = load i64, ptr %11, align 8, !tbaa !3
  %41 = load ptr, ptr %7, align 8, !tbaa !10
  %42 = call i64 @HUFv07_decompress1X4_usingDTable_internal(ptr noundef %37, i64 noundef %38, ptr noundef %39, i64 noundef %40, ptr noundef %41)
  store i64 %42, ptr %6, align 8
  store i32 1, ptr %14, align 4
  br label %43

43:                                               ; preds = %30, %29, %23
  call void @llvm.lifetime.end.p0(i64 8, ptr %13) #11
  call void @llvm.lifetime.end.p0(i64 8, ptr %12) #11
  %44 = load i64, ptr %6, align 8
  ret i64 %44
}