; Function Attrs: nofree norecurse nosync nounwind memory(read, argmem: readwrite, inaccessiblemem: none) uwtable
define i64 @HUFv07_decompress1X4_DCtx(ptr noundef captures(none) %0, ptr noundef %1, i64 noundef %2, ptr noundef %3, i64 noundef %4) local_unnamed_addr #12 {
  %6 = tail call i64 @HUFv07_readDTableX4(ptr noundef %0, ptr noundef %3, i64 noundef %4)
  %7 = icmp ult i64 %6, -119
  br i1 %7, label %8, label %13

8:                                                ; preds = %5
  %.not19 = icmp ult i64 %6, %4
  br i1 %.not19, label %9, label %13

9:                                                ; preds = %8
  %10 = getelementptr inbounds nuw i8, ptr %3, i64 %6
  %11 = sub nuw i64 %4, %6
  %12 = tail call fastcc i64 @HUFv07_decompress1X4_usingDTable_internal(ptr noundef %1, i64 noundef %2, ptr noundef nonnull %10, i64 noundef %11, ptr noundef %0)
  br label %13

13:                                               ; preds = %8, %5, %9
  %.0 = phi i64 [ %12, %9 ], [ %6, %5 ], [ -72, %8 ]
  ret i64 %.0
}